; Function Attrs: nofree nounwind uwtable
define void @Cnf_CutPrint(ptr noundef readonly captures(none) %0) local_unnamed_addr #4 {
  %putchar = tail call i32 @putchar(i32 123)
  %2 = load i8, ptr %0, align 8, !tbaa !15
  %3 = icmp sgt i8 %2, 0
  br i1 %3, label %.lr.ph, label %._crit_edge

.lr.ph:                                           ; preds = %1
  %4 = getelementptr inbounds nuw i8, ptr %0, i64 24
  br label %5

5:                                                ; preds = %.lr.ph, %5
  %indvars.iv = phi i64 [ 0, %.lr.ph ], [ %indvars.iv.next, %5 ]
  %6 = getelementptr inbounds nuw [0 x i32], ptr %4, i64 0, i64 %indvars.iv
  %7 = load i32, ptr %6, align 4, !tbaa !26
  %8 = tail call i32 (ptr, ...) @printf(ptr noundef nonnull dereferenceable(1) @.str.1, i32 noundef %7)
  %indvars.iv.next = add nuw nsw i64 %indvars.iv, 1
  %9 = load i8, ptr %0, align 8, !tbaa !15
  %10 = sext i8 %9 to i64
  %11 = icmp slt i64 %indvars.iv.next, %10
  br i1 %11, label %5, label %._crit_edge, !llvm.loop !29

._crit_edge:                                      ; preds = %5, %1
  %12 = tail call i32 (ptr, ...) @printf(ptr noundef nonnull dereferenceable(1) @.str.2)
  ret void
}